; Function Attrs: nounwind sspstrong uwtable
define internal void @virtio_pci_notify(ptr noundef %0, i16 noundef zeroext %1) #0 {
  %3 = tail call i32 @msix_enabled(ptr noundef %0) #15
  %.not = icmp eq i32 %3, 0
  br i1 %.not, label %virtio_bus_get_device.exit, label %4

4:                                                ; preds = %2
  %.not9 = icmp eq i16 %1, -1
  br i1 %.not9, label %14, label %5

5:                                                ; preds = %4
  %6 = zext i16 %1 to i32
  tail call void @msix_notify(ptr noundef %0, i32 noundef %6) #15
  br label %14

virtio_bus_get_device.exit:                       ; preds = %2
  %7 = getelementptr i8, ptr %0, i64 34160
  %.val = load ptr, ptr %7, align 8, !nonnull !6, !noundef !6
  %8 = getelementptr inbounds nuw i8, ptr %.val, i64 16
  %9 = load ptr, ptr %8, align 8
  %10 = getelementptr inbounds nuw i8, ptr %9, i64 161
  %11 = load atomic i8, ptr %10 monotonic, align 1
  %12 = and i8 %11, 1
  %13 = zext nneg i8 %12 to i32
  tail call void @pci_set_irq(ptr noundef nonnull %0, i32 noundef %13) #15
  br label %14

14:                                               ; preds = %4, %5, %virtio_bus_get_device.exit
  ret void
}